target datalayout = "e-m:e-p270:32:32-p271:32:32-p272:64:64-i64:64-i128:128-f80:128-n8:16:32:64-S128"
target triple = "x86_64-pc-linux-gnu"

%struct.wt_status = type { ptr, i32, ptr, ptr, %struct.pathspec, i32, i32, i32, i32, i32, i32, i32, i32, i32, i32, i32, ptr, [9 x [75 x i8]], i32, i32, i32, i32, i32, i32, i32, i32, i32, i32, i32, i8, %struct.wt_status_state, %struct.object_id, i32, i32, ptr, ptr, ptr, %struct.string_list, %struct.string_list, %struct.string_list, i32 }
%struct.pathspec = type { i32, i8, i32, i32, ptr }
%struct.wt_status_state = type { i32, i32, i32, i32, i32, i32, i32, i32, i32, i32, ptr, ptr, ptr, ptr, %struct.object_id, %struct.object_id, %struct.object_id }
%struct.object_id = type { [32 x i8], i32 }
%struct.string_list = type { ptr, i64, i64, i8, ptr }

; Function Attrs: nounwind uwtable
define dso_local void @wt_status_state_free_buffers(ptr noundef %0) #0 {
  %2 = alloca ptr, align 8
  store ptr %0, ptr %2, align 8, !tbaa !174
  br label %3

3:                                                ; preds = %1
  %4 = load ptr, ptr %2, align 8, !tbaa !174
  %5 = getelementptr inbounds nuw %struct.wt_status_state, ptr %4, i32 0, i32 10
  %6 = load ptr, ptr %5, align 8, !tbaa !182
  call void @free(ptr noundef %6) #12
  %7 = load ptr, ptr %2, align 8, !tbaa !174
  %8 = getelementptr inbounds nuw %struct.wt_status_state, ptr %7, i32 0, i32 10
  store ptr null, ptr %8, align 8, !tbaa !182
  br label %9

9:                                                ; preds = %3
  br label %10

10:                                               ; preds = %9
  %11 = load ptr, ptr %2, align 8, !tbaa !174
  %12 = getelementptr inbounds nuw %struct.wt_status_state, ptr %11, i32 0, i32 11
  %13 = load ptr, ptr %12, align 8, !tbaa !183
  call void @free(ptr noundef %13) #12
  %14 = load ptr, ptr %2, align 8, !tbaa !174
  %15 = getelementptr inbounds nuw %struct.wt_status_state, ptr %14, i32 0, i32 11
  store ptr null, ptr %15, align 8, !tbaa !183
  br label %16

16:                                               ; preds = %10
  br label %17

17:                                               ; preds = %16
  %18 = load ptr, ptr %2, align 8, !tbaa !174
  %19 = getelementptr inbounds nuw %struct.wt_status_state, ptr %18, i32 0, i32 12
  %20 = load ptr, ptr %19, align 8, !tbaa !184
  call void @free(ptr noundef %20) #12
  %21 = load ptr, ptr %2, align 8, !tbaa !174
  %22 = getelementptr inbounds nuw %struct.wt_status_state, ptr %21, i32 0, i32 12
  store ptr null, ptr %22, align 8, !tbaa !184
  br label %23

23:                                               ; preds = %17
  br label %24

24:                                               ; preds = %23
  %25 = load ptr, ptr %2, align 8, !tbaa !174
  %26 = getelementptr inbounds nuw %struct.wt_status_state, ptr %25, i32 0, i32 13
  %27 = load ptr, ptr %26, align 8, !tbaa !185
  call void @free(ptr noundef %27) #12
  %28 = load ptr, ptr %2, align 8, !tbaa !174
  %29 = getelementptr inbounds nuw %struct.wt_status_state, ptr %28, i32 0, i32 13
  store ptr null, ptr %29, align 8, !tbaa !185
  br label %30

30:                                               ; preds = %24
  ret void
}

; Function Attrs: nounwind uwtable
define dso_local void @wt_status_collect_free_buffers(ptr noundef %0) #0 {
  %2 = alloca ptr, align 8
  store ptr %0, ptr %2, align 8, !tbaa !4
  %3 = load ptr, ptr %2, align 8, !tbaa !4
  %4 = getelementptr inbounds nuw %struct.wt_status, ptr %3, i32 0, i32 30
  call void @wt_status_state_free_buffers(ptr noundef %4)
  ret void
}