; Function Attrs: mustprogress nounwind willreturn uwtable
define dso_local void @wt_status_collect_free_buffers(ptr noundef captures(none) %0) local_unnamed_addr #7 {
  %2 = getelementptr inbounds nuw i8, ptr %0, i64 880
  %3 = load ptr, ptr %2, align 8, !tbaa !182
  tail call void @free(ptr noundef %3) #20
  store ptr null, ptr %2, align 8, !tbaa !182
  %4 = getelementptr inbounds nuw i8, ptr %0, i64 888
  %5 = load ptr, ptr %4, align 8, !tbaa !183
  tail call void @free(ptr noundef %5) #20
  store ptr null, ptr %4, align 8, !tbaa !183
  %6 = getelementptr inbounds nuw i8, ptr %0, i64 896
  %7 = load ptr, ptr %6, align 8, !tbaa !177
  tail call void @free(ptr noundef %7) #20
  store ptr null, ptr %6, align 8, !tbaa !177
  %8 = getelementptr inbounds nuw i8, ptr %0, i64 904
  %9 = load ptr, ptr %8, align 8, !tbaa !171
  tail call void @free(ptr noundef %9) #20
  store ptr null, ptr %8, align 8, !tbaa !171
  ret void
}